; Function Attrs: nounwind uwtable
define range(i32 0, 2) i32 @stbi__at_eof(ptr noundef readonly captures(none) %0) local_unnamed_addr #2 {
  %2 = getelementptr inbounds nuw i8, ptr %0, i64 16
  %3 = load ptr, ptr %2, align 8, !tbaa !3
  %.not = icmp eq ptr %3, null
  br i1 %.not, label %14, label %4

4:                                                ; preds = %1
  %5 = getelementptr inbounds nuw i8, ptr %0, i64 32
  %6 = load ptr, ptr %5, align 8, !tbaa !76
  %7 = getelementptr inbounds nuw i8, ptr %0, i64 40
  %8 = load ptr, ptr %7, align 8, !tbaa !19
  %9 = tail call i32 %6(ptr noundef %8) #37
  %.not6 = icmp eq i32 %9, 0
  br i1 %.not6, label %21, label %10

10:                                               ; preds = %4
  %11 = getelementptr inbounds nuw i8, ptr %0, i64 48
  %12 = load i32, ptr %11, align 8, !tbaa !11
  %13 = icmp eq i32 %12, 0
  br i1 %13, label %21, label %14

14:                                               ; preds = %10, %1
  %15 = getelementptr inbounds nuw i8, ptr %0, i64 192
  %16 = load ptr, ptr %15, align 8, !tbaa !14
  %17 = getelementptr inbounds nuw i8, ptr %0, i64 200
  %18 = load ptr, ptr %17, align 8, !tbaa !16
  %19 = icmp uge ptr %16, %18
  %20 = zext i1 %19 to i32
  br label %21

21:                                               ; preds = %10, %4, %14
  %.0 = phi i32 [ %20, %14 ], [ 0, %4 ], [ 1, %10 ]
  ret i32 %.0
}